; Function Attrs: nounwind uwtable
define range(i32 0, 2) i32 @ossl_blake2s_get_ctx_params(ptr noundef readonly captures(address_is_null) %0, ptr noundef %1) #1 {
  %3 = icmp eq ptr %0, null
  br i1 %3, label %ossl_param_is_empty.exit.thread, label %4

4:                                                ; preds = %2
  %5 = icmp eq ptr %1, null
  br i1 %5, label %ossl_param_is_empty.exit.thread, label %ossl_param_is_empty.exit

ossl_param_is_empty.exit:                         ; preds = %4
  %6 = load ptr, ptr %1, align 8, !tbaa !3
  %.not = icmp eq ptr %6, null
  br i1 %.not, label %ossl_param_is_empty.exit.thread, label %7

7:                                                ; preds = %ossl_param_is_empty.exit
  %8 = tail call ptr @OSSL_PARAM_locate(ptr noundef nonnull %1, ptr noundef nonnull @.str) #6
  %.not10 = icmp eq ptr %8, null
  br i1 %.not10, label %ossl_param_is_empty.exit.thread, label %9

9:                                                ; preds = %7
  %10 = getelementptr inbounds nuw i8, ptr %0, i64 128
  %11 = load i8, ptr %10, align 8, !tbaa !11
  %12 = zext i8 %11 to i32
  %13 = tail call i32 @OSSL_PARAM_set_uint(ptr noundef nonnull %8, i32 noundef %12) #6
  %.not11 = icmp eq i32 %13, 0
  br i1 %.not11, label %14, label %ossl_param_is_empty.exit.thread

14:                                               ; preds = %9
  tail call void @ERR_new() #6
  tail call void @ERR_set_debug(ptr noundef nonnull @.str.1, i32 noundef 197, ptr noundef nonnull @__func__.ossl_blake2s_get_ctx_params) #6
  tail call void (i32, i32, ptr, ...) @ERR_set_error(i32 noundef 57, i32 noundef 104, ptr noundef null) #6
  br label %ossl_param_is_empty.exit.thread

ossl_param_is_empty.exit.thread:                  ; preds = %4, %7, %9, %ossl_param_is_empty.exit, %2, %14
  %.0 = phi i32 [ 0, %14 ], [ 0, %2 ], [ 1, %ossl_param_is_empty.exit ], [ 1, %9 ], [ 1, %7 ], [ 1, %4 ]
  ret i32 %.0
}